target datalayout = "e-m:e-p270:32:32-p271:32:32-p272:64:64-i64:64-i128:128-f80:128-n8:16:32:64-S128"
target triple = "x86_64-pc-linux-gnu"

%struct.IDAMemRec = type { ptr, double, ptr, ptr, i32, double, double, ptr, i32, i32, ptr, ptr, i32, i32, i32, ptr, ptr, i32, i32, double, double, ptr, i32, i32, i32, i32, ptr, ptr, i32, ptr, ptr, ptr, i32, double, i32, i32, double, ptr, ptr, ptr, i32, ptr, ptr, i32, i32, i32, double, ptr, ptr, ptr, [6 x ptr], [6 x double], [6 x double], [6 x double], [6 x double], [6 x double], ptr, ptr, ptr, ptr, ptr, ptr, ptr, ptr, ptr, ptr, ptr, ptr, ptr, ptr, ptr, ptr, ptr, [6 x ptr], ptr, ptr, ptr, ptr, [6 x ptr], ptr, ptr, ptr, ptr, ptr, ptr, ptr, ptr, ptr, ptr, ptr, ptr, ptr, ptr, ptr, ptr, [6 x ptr], ptr, ptr, ptr, ptr, ptr, double, ptr, ptr, i32, i32, i32, i32, i32, i32, i32, i32, double, double, double, i32, double, i32, i32, i32, i32, i32, double, double, double, double, double, double, double, double, double, double, double, double, double, double, double, double, double, i32, i32, i32, i32, i64, double, double, double, double, double, double, double, double, double, i64, i64, i64, i64, i64, i64, i64, i64, i64, i64, i64, i64, i64, i64, i64, i64, i64, i64, i64, i64, i64, i64, i64, i64, i64, i64, double, i32, i32, i32, i32, i32, i32, i32, i32, i32, i32, i32, i32, i32, ptr, i32, ptr, i32, ptr, i32, ptr, ptr, ptr, ptr, ptr, ptr, i32, i32, ptr, ptr, ptr, ptr, ptr, ptr, ptr, double, i32, i32, ptr, i32, ptr, ptr, double, double, double, ptr, ptr, ptr, double, double, i32, i32, i64, ptr, i32, ptr, [5 x double], ptr, ptr, i32, ptr, i32 }

; Function Attrs: nounwind uwtable
define void @IDASensFree(ptr noundef %0) #0 {
  %2 = alloca ptr, align 8
  %3 = alloca ptr, align 8
  %4 = alloca i32, align 4
  store ptr %0, ptr %2, align 8, !tbaa !126
  call void @llvm.lifetime.start.p0(i64 8, ptr %3) #10
  %5 = load ptr, ptr %2, align 8, !tbaa !126
  %6 = icmp eq ptr %5, null
  br i1 %6, label %7, label %8

7:                                                ; preds = %1
  store i32 1, ptr %4, align 4
  br label %106

8:                                                ; preds = %1
  %9 = load ptr, ptr %2, align 8, !tbaa !126
  store ptr %9, ptr %3, align 8, !tbaa !8
  %10 = load ptr, ptr %3, align 8, !tbaa !8
  %11 = getelementptr inbounds nuw %struct.IDAMemRec, ptr %10, i32 0, i32 189
  %12 = load i32, ptr %11, align 4, !tbaa !95
  %13 = icmp ne i32 %12, 0
  br i1 %13, label %14, label %20

14:                                               ; preds = %8
  %15 = load ptr, ptr %3, align 8, !tbaa !8
  call void @IDASensFreeVectors(ptr noundef %15)
  %16 = load ptr, ptr %3, align 8, !tbaa !8
  %17 = getelementptr inbounds nuw %struct.IDAMemRec, ptr %16, i32 0, i32 189
  store i32 0, ptr %17, align 4, !tbaa !95
  %18 = load ptr, ptr %3, align 8, !tbaa !8
  %19 = getelementptr inbounds nuw %struct.IDAMemRec, ptr %18, i32 0, i32 23
  store i32 0, ptr %19, align 4, !tbaa !63
  br label %20

20:                                               ; preds = %14, %8
  %21 = load ptr, ptr %3, align 8, !tbaa !8
  %22 = getelementptr inbounds nuw %struct.IDAMemRec, ptr %21, i32 0, i32 205
  %23 = load i32, ptr %22, align 8, !tbaa !107
  %24 = icmp ne i32 %23, 0
  br i1 %24, label %25, label %43

25:                                               ; preds = %20
  %26 = load ptr, ptr %3, align 8, !tbaa !8
  %27 = getelementptr inbounds nuw %struct.IDAMemRec, ptr %26, i32 0, i32 199
  %28 = load ptr, ptr %27, align 8, !tbaa !104
  call void @N_VDestroy(ptr noundef %28)
  %29 = load ptr, ptr %3, align 8, !tbaa !8
  %30 = getelementptr inbounds nuw %struct.IDAMemRec, ptr %29, i32 0, i32 199
  store ptr null, ptr %30, align 8, !tbaa !104
  %31 = load ptr, ptr %3, align 8, !tbaa !8
  %32 = getelementptr inbounds nuw %struct.IDAMemRec, ptr %31, i32 0, i32 200
  %33 = load ptr, ptr %32, align 8, !tbaa !105
  call void @N_VDestroy(ptr noundef %33)
  %34 = load ptr, ptr %3, align 8, !tbaa !8
  %35 = getelementptr inbounds nuw %struct.IDAMemRec, ptr %34, i32 0, i32 200
  store ptr null, ptr %35, align 8, !tbaa !105
  %36 = load ptr, ptr %3, align 8, !tbaa !8
  %37 = getelementptr inbounds nuw %struct.IDAMemRec, ptr %36, i32 0, i32 201
  %38 = load ptr, ptr %37, align 8, !tbaa !106
  call void @N_VDestroy(ptr noundef %38)
  %39 = load ptr, ptr %3, align 8, !tbaa !8
  %40 = getelementptr inbounds nuw %struct.IDAMemRec, ptr %39, i32 0, i32 201
  store ptr null, ptr %40, align 8, !tbaa !106
  %41 = load ptr, ptr %3, align 8, !tbaa !8
  %42 = getelementptr inbounds nuw %struct.IDAMemRec, ptr %41, i32 0, i32 205
  store i32 0, ptr %42, align 8, !tbaa !107
  br label %43

43:                                               ; preds = %25, %20
  %44 = load ptr, ptr %3, align 8, !tbaa !8
  %45 = getelementptr inbounds nuw %struct.IDAMemRec, ptr %44, i32 0, i32 206
  %46 = load i32, ptr %45, align 4, !tbaa !113
  %47 = icmp ne i32 %46, 0
  br i1 %47, label %48, label %66

48:                                               ; preds = %43
  %49 = load ptr, ptr %3, align 8, !tbaa !8
  %50 = getelementptr inbounds nuw %struct.IDAMemRec, ptr %49, i32 0, i32 202
  %51 = load ptr, ptr %50, align 8, !tbaa !110
  call void @N_VDestroy(ptr noundef %51)
  %52 = load ptr, ptr %3, align 8, !tbaa !8
  %53 = getelementptr inbounds nuw %struct.IDAMemRec, ptr %52, i32 0, i32 202
  store ptr null, ptr %53, align 8, !tbaa !110
  %54 = load ptr, ptr %3, align 8, !tbaa !8
  %55 = getelementptr inbounds nuw %struct.IDAMemRec, ptr %54, i32 0, i32 203
  %56 = load ptr, ptr %55, align 8, !tbaa !111
  call void @N_VDestroy(ptr noundef %56)
  %57 = load ptr, ptr %3, align 8, !tbaa !8
  %58 = getelementptr inbounds nuw %struct.IDAMemRec, ptr %57, i32 0, i32 203
  store ptr null, ptr %58, align 8, !tbaa !111
  %59 = load ptr, ptr %3, align 8, !tbaa !8
  %60 = getelementptr inbounds nuw %struct.IDAMemRec, ptr %59, i32 0, i32 204
  %61 = load ptr, ptr %60, align 8, !tbaa !112
  call void @N_VDestroy(ptr noundef %61)
  %62 = load ptr, ptr %3, align 8, !tbaa !8
  %63 = getelementptr inbounds nuw %struct.IDAMemRec, ptr %62, i32 0, i32 204
  store ptr null, ptr %63, align 8, !tbaa !112
  %64 = load ptr, ptr %3, align 8, !tbaa !8
  %65 = getelementptr inbounds nuw %struct.IDAMemRec, ptr %64, i32 0, i32 206
  store i32 0, ptr %65, align 4, !tbaa !113
  br label %66

66:                                               ; preds = %48, %43
  %67 = load ptr, ptr %3, align 8, !tbaa !8
  %68 = getelementptr inbounds nuw %struct.IDAMemRec, ptr %67, i32 0, i32 196
  %69 = load i32, ptr %68, align 8, !tbaa !103
  %70 = icmp ne i32 %69, 0
  br i1 %70, label %71, label %80

71:                                               ; preds = %66
  %72 = load ptr, ptr %3, align 8, !tbaa !8
  %73 = getelementptr inbounds nuw %struct.IDAMemRec, ptr %72, i32 0, i32 195
  %74 = load ptr, ptr %73, align 8, !tbaa !102
  %75 = call i32 @SUNNonlinSolFree(ptr noundef %74)
  %76 = load ptr, ptr %3, align 8, !tbaa !8
  %77 = getelementptr inbounds nuw %struct.IDAMemRec, ptr %76, i32 0, i32 196
  store i32 0, ptr %77, align 8, !tbaa !103
  %78 = load ptr, ptr %3, align 8, !tbaa !8
  %79 = getelementptr inbounds nuw %struct.IDAMemRec, ptr %78, i32 0, i32 195
  store ptr null, ptr %79, align 8, !tbaa !102
  br label %80

80:                                               ; preds = %71, %66
  %81 = load ptr, ptr %3, align 8, !tbaa !8
  %82 = getelementptr inbounds nuw %struct.IDAMemRec, ptr %81, i32 0, i32 198
  %83 = load i32, ptr %82, align 8, !tbaa !109
  %84 = icmp ne i32 %83, 0
  br i1 %84, label %85, label %94

85:                                               ; preds = %80
  %86 = load ptr, ptr %3, align 8, !tbaa !8
  %87 = getelementptr inbounds nuw %struct.IDAMemRec, ptr %86, i32 0, i32 197
  %88 = load ptr, ptr %87, align 8, !tbaa !108
  %89 = call i32 @SUNNonlinSolFree(ptr noundef %88)
  %90 = load ptr, ptr %3, align 8, !tbaa !8
  %91 = getelementptr inbounds nuw %struct.IDAMemRec, ptr %90, i32 0, i32 198
  store i32 0, ptr %91, align 8, !tbaa !109
  %92 = load ptr, ptr %3, align 8, !tbaa !8
  %93 = getelementptr inbounds nuw %struct.IDAMemRec, ptr %92, i32 0, i32 197
  store ptr null, ptr %93, align 8, !tbaa !108
  br label %94

94:                                               ; preds = %85, %80
  %95 = load ptr, ptr %3, align 8, !tbaa !8
  %96 = getelementptr inbounds nuw %struct.IDAMemRec, ptr %95, i32 0, i32 39
  %97 = load ptr, ptr %96, align 8, !tbaa !74
  %98 = icmp ne ptr %97, null
  br i1 %98, label %99, label %105

99:                                               ; preds = %94
  %100 = load ptr, ptr %3, align 8, !tbaa !8
  %101 = getelementptr inbounds nuw %struct.IDAMemRec, ptr %100, i32 0, i32 39
  %102 = load ptr, ptr %101, align 8, !tbaa !74
  call void @free(ptr noundef %102) #10
  %103 = load ptr, ptr %3, align 8, !tbaa !8
  %104 = getelementptr inbounds nuw %struct.IDAMemRec, ptr %103, i32 0, i32 39
  store ptr null, ptr %104, align 8, !tbaa !74
  br label %105

105:                                              ; preds = %99, %94
  store i32 0, ptr %4, align 4
  br label %106

106:                                              ; preds = %105, %7
  call void @llvm.lifetime.end.p0(i64 8, ptr %3) #10
  %107 = load i32, ptr %4, align 4
  switch i32 %107, label %109 [
    i32 0, label %108
    i32 1, label %108
  ]

108:                                              ; preds = %106, %106
  ret void

109:                                              ; preds = %106
  unreachable
}