; Function Attrs: nounwind uwtable
define void @IDASensFree(ptr noundef captures(address_is_null) %0) local_unnamed_addr #0 {
  %2 = icmp eq ptr %0, null
  br i1 %2, label %46, label %3

3:                                                ; preds = %1
  %4 = getelementptr inbounds nuw i8, ptr %0, i64 1716
  %5 = load i32, ptr %4, align 4, !tbaa !185
  %.not = icmp eq i32 %5, 0
  br i1 %.not, label %8, label %6

6:                                                ; preds = %3
  tail call fastcc void @IDASensFreeVectors(ptr noundef %0)
  store i32 0, ptr %4, align 4, !tbaa !185
  %7 = getelementptr inbounds nuw i8, ptr %0, i64 156
  store i32 0, ptr %7, align 4, !tbaa !45
  br label %8

8:                                                ; preds = %6, %3
  %9 = getelementptr inbounds nuw i8, ptr %0, i64 1832
  %10 = load i32, ptr %9, align 8, !tbaa !260
  %.not34 = icmp eq i32 %10, 0
  br i1 %.not34, label %18, label %11

11:                                               ; preds = %8
  %12 = getelementptr inbounds nuw i8, ptr %0, i64 1784
  %13 = load ptr, ptr %12, align 8, !tbaa !244
  tail call void @N_VDestroy(ptr noundef %13) #14
  store ptr null, ptr %12, align 8, !tbaa !244
  %14 = getelementptr inbounds nuw i8, ptr %0, i64 1792
  %15 = load ptr, ptr %14, align 8, !tbaa !238
  tail call void @N_VDestroy(ptr noundef %15) #14
  store ptr null, ptr %14, align 8, !tbaa !238
  %16 = getelementptr inbounds nuw i8, ptr %0, i64 1800
  %17 = load ptr, ptr %16, align 8, !tbaa !245
  tail call void @N_VDestroy(ptr noundef %17) #14
  store ptr null, ptr %16, align 8, !tbaa !245
  store i32 0, ptr %9, align 8, !tbaa !260
  br label %18

18:                                               ; preds = %11, %8
  %19 = getelementptr inbounds nuw i8, ptr %0, i64 1836
  %20 = load i32, ptr %19, align 4, !tbaa !261
  %.not35 = icmp eq i32 %20, 0
  br i1 %.not35, label %28, label %21

21:                                               ; preds = %18
  %22 = getelementptr inbounds nuw i8, ptr %0, i64 1808
  %23 = load ptr, ptr %22, align 8, !tbaa !251
  tail call void @N_VDestroy(ptr noundef %23) #14
  store ptr null, ptr %22, align 8, !tbaa !251
  %24 = getelementptr inbounds nuw i8, ptr %0, i64 1816
  %25 = load ptr, ptr %24, align 8, !tbaa !250
  tail call void @N_VDestroy(ptr noundef %25) #14
  store ptr null, ptr %24, align 8, !tbaa !250
  %26 = getelementptr inbounds nuw i8, ptr %0, i64 1824
  %27 = load ptr, ptr %26, align 8, !tbaa !252
  tail call void @N_VDestroy(ptr noundef %27) #14
  store ptr null, ptr %26, align 8, !tbaa !252
  store i32 0, ptr %19, align 4, !tbaa !261
  br label %28

28:                                               ; preds = %21, %18
  %29 = getelementptr inbounds nuw i8, ptr %0, i64 1760
  %30 = load i32, ptr %29, align 8, !tbaa !70
  %.not36 = icmp eq i32 %30, 0
  br i1 %.not36, label %35, label %31

31:                                               ; preds = %28
  %32 = getelementptr inbounds nuw i8, ptr %0, i64 1752
  %33 = load ptr, ptr %32, align 8, !tbaa !69
  %34 = tail call i32 @SUNNonlinSolFree(ptr noundef %33) #14
  store i32 0, ptr %29, align 8, !tbaa !70
  store ptr null, ptr %32, align 8, !tbaa !69
  br label %35

35:                                               ; preds = %31, %28
  %36 = getelementptr inbounds nuw i8, ptr %0, i64 1776
  %37 = load i32, ptr %36, align 8, !tbaa !72
  %.not37 = icmp eq i32 %37, 0
  br i1 %.not37, label %42, label %38

38:                                               ; preds = %35
  %39 = getelementptr inbounds nuw i8, ptr %0, i64 1768
  %40 = load ptr, ptr %39, align 8, !tbaa !71
  %41 = tail call i32 @SUNNonlinSolFree(ptr noundef %40) #14
  store i32 0, ptr %36, align 8, !tbaa !72
  store ptr null, ptr %39, align 8, !tbaa !71
  br label %42

42:                                               ; preds = %38, %35
  %43 = getelementptr inbounds nuw i8, ptr %0, i64 264
  %44 = load ptr, ptr %43, align 8, !tbaa !53
  %.not38 = icmp eq ptr %44, null
  br i1 %.not38, label %46, label %45

45:                                               ; preds = %42
  tail call void @free(ptr noundef nonnull %44) #14
  store ptr null, ptr %43, align 8, !tbaa !53
  br label %46

46:                                               ; preds = %42, %45, %1
  ret void
}